target datalayout = "e-m:e-p270:32:32-p271:32:32-p272:64:64-i64:64-i128:128-f80:128-n8:16:32:64-S128"
target triple = "x86_64-pc-linux-gnu"

%struct.rb_vm_struct = type { i64, %struct.anon.5, ptr, i64, %struct.ccan_list_head, i32, i8, i64, ptr, [5 x i64], i64, i64, i64, i64, i64, i64, i64, i64, i64, ptr, ptr, ptr, %struct.anon.9, ptr, i32, %struct.ccan_list_head, %union.pthread_mutex_t, i64, i64, i64, i64, i32, %struct.anon.10, ptr, ptr, ptr, ptr, ptr, ptr, ptr, ptr, i64, [1023 x ptr], %struct.anon.11 }
%struct.anon.5 = type { %struct.ccan_list_head, i32, i32, ptr, ptr, %struct.anon.6, %struct.anon.8 }
%struct.anon.6 = type { %union.pthread_mutex_t, ptr, i32, %union.pthread_cond_t, i8 }
%union.pthread_cond_t = type { %struct.__pthread_cond_s }
%struct.__pthread_cond_s = type { %union.__atomic_wide_counter, %union.__atomic_wide_counter, [2 x i32], [2 x i32], i32, i32, [2 x i32] }
%union.__atomic_wide_counter = type { i64 }
%struct.anon.8 = type { %union.pthread_mutex_t, ptr, i8, %union.pthread_cond_t, i32, i32, i32, i32, %struct.ccan_list_head, i32, %struct.ccan_list_head, %struct.ccan_list_head, %struct.ccan_list_head, i8, %union.pthread_cond_t, %union.pthread_cond_t, i8, i32, i32 }
%struct.anon.9 = type { [65 x i64] }
%struct.ccan_list_head = type { %struct.ccan_list_node }
%struct.ccan_list_node = type { ptr, ptr }
%union.pthread_mutex_t = type { %struct.__pthread_mutex_s }
%struct.__pthread_mutex_s = type { i32, i32, i32, i32, i32, i16, i16, %struct.__pthread_internal_list }
%struct.__pthread_internal_list = type { ptr, ptr }
%struct.anon.10 = type { ptr, ptr }
%struct.anon.11 = type { i64, i64, i64, i64 }

@ruby_current_vm_ptr = external global ptr, align 8
@ruby_single_main_ractor = external global ptr, align 8

; Function Attrs: inlinehint nounwind sspstrong uwtable
define internal ptr @rb_current_vm() #1 {
  %1 = load ptr, ptr @ruby_current_vm_ptr, align 8, !tbaa !7
  ret ptr %1
}

; Function Attrs: inlinehint nounwind sspstrong uwtable
define internal zeroext i1 @rb_multi_ractor_p() #1 {
  %1 = alloca i1, align 1
  %2 = load ptr, ptr @ruby_single_main_ractor, align 8, !tbaa !39
  %3 = icmp ne ptr %2, null
  %4 = xor i1 %3, true
  %5 = xor i1 %4, true
  %6 = zext i1 %5 to i32
  %7 = sext i32 %6 to i64
  %8 = call i64 @llvm.expect.i64(i64 %7, i64 1)
  %9 = icmp ne i64 %8, 0
  br i1 %9, label %10, label %11

10:                                               ; preds = %0
  store i1 false, ptr %1, align 1
  br label %12

11:                                               ; preds = %0
  store i1 true, ptr %1, align 1
  br label %12

12:                                               ; preds = %11, %10
  %13 = load i1, ptr %1, align 1
  ret i1 %13
}

; Function Attrs: nounwind sspstrong uwtable
define hidden void @rb_vm_barrier() #0 {
  %1 = alloca ptr, align 8
  %2 = alloca ptr, align 8
  %3 = call zeroext i1 @rb_multi_ractor_p()
  br i1 %3, label %5, label %4

4:                                                ; preds = %0
  br label %14

5:                                                ; preds = %0
  call void @llvm.lifetime.start.p0(i64 8, ptr %1) #9
  %6 = call ptr @rb_current_vm()
  store ptr %6, ptr %1, align 8, !tbaa !7
  call void @llvm.lifetime.start.p0(i64 8, ptr %2) #9
  %7 = load ptr, ptr %1, align 8, !tbaa !7
  %8 = getelementptr inbounds nuw %struct.rb_vm_struct, ptr %7, i32 0, i32 1
  %9 = getelementptr inbounds nuw %struct.anon.5, ptr %8, i32 0, i32 5
  %10 = getelementptr inbounds nuw %struct.anon.6, ptr %9, i32 0, i32 1
  %11 = load ptr, ptr %10, align 8, !tbaa !12
  store ptr %11, ptr %2, align 8, !tbaa !39
  %12 = load ptr, ptr %1, align 8, !tbaa !7
  %13 = load ptr, ptr %2, align 8, !tbaa !39
  call void @rb_ractor_sched_barrier_start(ptr noundef %12, ptr noundef %13)
  call void @llvm.lifetime.end.p0(i64 8, ptr %2) #9
  call void @llvm.lifetime.end.p0(i64 8, ptr %1) #9
  br label %14

14:                                               ; preds = %4, %5
  ret void
}