; Function Attrs: nounwind sspstrong uwtable
define hidden void @rb_vm_barrier() local_unnamed_addr #2 {
  %1 = load ptr, ptr @ruby_single_main_ractor, align 8, !tbaa !37
  %.not.i = icmp eq ptr %1, null
  br i1 %.not.i, label %2, label %6

2:                                                ; preds = %0
  %3 = load ptr, ptr @ruby_current_vm_ptr, align 8, !tbaa !7
  %4 = getelementptr inbounds nuw i8, ptr %3, i64 88
  %5 = load ptr, ptr %4, align 8, !tbaa !12
  tail call void @rb_ractor_sched_barrier_start(ptr noundef %3, ptr noundef %5) #7
  br label %6

6:                                                ; preds = %0, %2
  ret void
}